; Function Attrs: mustprogress nofree norecurse nosync nounwind willreturn memory(read, argmem: readwrite, inaccessiblemem: none) uwtable
define void @_ZN5arrow7compute19RunEndEncodeOptionsC2ESt10shared_ptrINS_8DataTypeEE(ptr noundef nonnull writeonly align 8 captures(none) dereferenceable(32) initializes((0, 32)) %0, ptr noundef captures(none) %1) unnamed_addr #3 align 2 {
  %3 = load ptr, ptr @_ZN5arrow7compute8internal12_GLOBAL__N_124kRunEndEncodeOptionsTypeE, align 8, !tbaa !32
  %4 = getelementptr inbounds nuw i8, ptr %0, i64 8
  store ptr %3, ptr %4, align 8, !tbaa !35
  store ptr getelementptr inbounds nuw inrange(-16, 16) (i8, ptr @_ZTVN5arrow7compute19RunEndEncodeOptionsE, i64 16), ptr %0, align 8, !tbaa !37
  %5 = getelementptr inbounds nuw i8, ptr %0, i64 16
  %6 = load ptr, ptr %1, align 8, !tbaa !48
  store ptr %6, ptr %5, align 8, !tbaa !48
  %7 = getelementptr inbounds nuw i8, ptr %0, i64 24
  store ptr null, ptr %7, align 8, !tbaa !53
  %8 = getelementptr inbounds nuw i8, ptr %1, i64 8
  %9 = load ptr, ptr %8, align 8, !tbaa !53
  store ptr null, ptr %8, align 8, !tbaa !53
  store ptr %9, ptr %7, align 8, !tbaa !53
  store ptr null, ptr %1, align 8, !tbaa !48
  ret void
}